target datalayout = "e-m:e-p270:32:32-p271:32:32-p272:64:64-i64:64-i128:128-f80:128-n8:16:32:64-S128"
target triple = "x86_64-unknown-linux-gnu"

; Function Attrs: mustprogress nounwind uwtable
define noundef signext i8 @_ZN6icu_7517CollationSettings25reorderTableHasSplitBytesEPKh(ptr noundef %table) #1 align 2 {
entry:
  %retval = alloca i8, align 1
  %table.addr = alloca ptr, align 8
  %i = alloca i32, align 4
  store ptr %table, ptr %table.addr, align 8
  store i32 1, ptr %i, align 4
  br label %for.cond

for.cond:                                         ; preds = %for.inc, %entry
  %0 = load i32, ptr %i, align 4
  %cmp = icmp slt i32 %0, 256
  br i1 %cmp, label %for.body, label %for.end

for.body:                                         ; preds = %for.cond
  %1 = load ptr, ptr %table.addr, align 8
  %2 = load i32, ptr %i, align 4
  %idxprom = sext i32 %2 to i64
  %arrayidx = getelementptr inbounds i8, ptr %1, i64 %idxprom
  %3 = load i8, ptr %arrayidx, align 1
  %conv = zext i8 %3 to i32
  %cmp1 = icmp eq i32 %conv, 0
  br i1 %cmp1, label %if.then, label %if.end

if.then:                                          ; preds = %for.body
  store i8 1, ptr %retval, align 1
  br label %return

if.end:                                           ; preds = %for.body
  br label %for.inc

for.inc:                                          ; preds = %if.end
  %4 = load i32, ptr %i, align 4
  %inc = add nsw i32 %4, 1
  store i32 %inc, ptr %i, align 4
  br label %for.cond, !llvm.loop !8

for.end:                                          ; preds = %for.cond
  store i8 0, ptr %retval, align 1
  br label %return

return:                                           ; preds = %for.end, %if.then
  %5 = load i8, ptr %retval, align 1
  ret i8 %5
}