; Function Attrs: mustprogress nofree norecurse nosync nounwind willreturn memory(argmem: read) uwtable
define noundef signext i8 @_ZN6icu_7517CollationSettings25reorderTableHasSplitBytesEPKh(ptr nocapture noundef readonly %table) local_unnamed_addr #8 align 2 {
entry:
  br label %for.body

for.cond:                                         ; preds = %for.body
  %indvars.iv.next = add nuw nsw i64 %indvars.iv, 1
  %exitcond.not = icmp eq i64 %indvars.iv.next, 256
  br i1 %exitcond.not, label %return, label %for.body, !llvm.loop !7

for.body:                                         ; preds = %entry, %for.cond
  %indvars.iv = phi i64 [ 1, %entry ], [ %indvars.iv.next, %for.cond ]
  %arrayidx = getelementptr inbounds i8, ptr %table, i64 %indvars.iv
  %0 = load i8, ptr %arrayidx, align 1
  %cmp1 = icmp eq i8 %0, 0
  br i1 %cmp1, label %return, label %for.cond

return:                                           ; preds = %for.cond, %for.body
  %retval.0 = phi i8 [ 1, %for.body ], [ 0, %for.cond ]
  ret i8 %retval.0
}